; Function Attrs: mustprogress uwtable
define internal void @_ZN11opencv_test12_GLOBAL__N_138gtest_PerfHamming_norm2_EvalGenerator_Ev(ptr dead_on_unwind noalias writable sret(%"class.testing::internal::ParamGenerator.71") align 8 %0) #4 {
  %2 = alloca %"class.testing::internal::CartesianProductHolder3.243", align 4
  call void @llvm.lifetime.start.p0(i64 28, ptr nonnull %2) #30
  store i32 6, ptr %2, align 4, !tbaa !169, !alias.scope !179
  %3 = getelementptr inbounds nuw i8, ptr %2, i64 4
  store i32 7, ptr %3, align 4, !tbaa !175, !alias.scope !179
  %4 = getelementptr inbounds nuw i8, ptr %2, i64 8
  store i32 0, ptr %4, align 4, !tbaa !176, !alias.scope !179
  %5 = getelementptr inbounds nuw i8, ptr %2, i64 12
  store i64 2061584302720, ptr %5, align 4, !alias.scope !179
  %6 = getelementptr inbounds nuw i8, ptr %2, i64 20
  store i64 4638564681600, ptr %6, align 4, !alias.scope !179
  call fastcc void @_ZNK7testing8internal23CartesianProductHolder3INS0_11ValueArray2IN2cv9NormTypesES4_EENS0_11ValueArray1IiEENS2_INS3_5Size_IiEES9_EEEcvNS0_14ParamGeneratorISt5tupleIJT_T0_T1_EEEEIN11opencv_test12_GLOBAL__N_18NormTypeEN4perf7MatTypeES9_EEv(ptr dead_on_unwind noalias writable align 8 %0, ptr noundef nonnull align 4 dereferenceable(28) %2)
  call void @llvm.lifetime.end.p0(i64 28, ptr nonnull %2) #30
  ret void
}